target datalayout = "e-m:e-p270:32:32-p271:32:32-p272:64:64-i64:64-i128:128-f80:128-n8:16:32:64-S128"
target triple = "x86_64-pc-linux-gnu"

; Function Attrs: inlinehint nounwind uwtable
define internal i32 @Abc_LitNot(i32 noundef %0) #1 {
  %2 = alloca i32, align 4
  store i32 %0, ptr %2, align 4, !tbaa !8
  %3 = load i32, ptr %2, align 4, !tbaa !8
  %4 = xor i32 %3, 1
  ret i32 %4
}

; Function Attrs: inlinehint nounwind uwtable
define internal i32 @Abc_LitNotCond(i32 noundef %0, i32 noundef %1) #1 {
  %3 = alloca i32, align 4
  %4 = alloca i32, align 4
  store i32 %0, ptr %3, align 4, !tbaa !8
  store i32 %1, ptr %4, align 4, !tbaa !8
  %5 = load i32, ptr %3, align 4, !tbaa !8
  %6 = load i32, ptr %4, align 4, !tbaa !8
  %7 = icmp sgt i32 %6, 0
  %8 = zext i1 %7 to i32
  %9 = xor i32 %5, %8
  ret i32 %9
}

; Function Attrs: nounwind uwtable
define i32 @Gia_ManFindCond(ptr noundef %0, i32 noundef %1, i32 noundef %2, i32 noundef %3) #0 {
  %5 = alloca i32, align 4
  %6 = alloca ptr, align 8
  %7 = alloca i32, align 4
  %8 = alloca i32, align 4
  %9 = alloca i32, align 4
  %10 = alloca i32, align 4
  %11 = alloca i32, align 4
  store ptr %0, ptr %6, align 8, !tbaa !10
  store i32 %1, ptr %7, align 4, !tbaa !8
  store i32 %2, ptr %8, align 4, !tbaa !8
  store i32 %3, ptr %9, align 4, !tbaa !8
  call void @llvm.lifetime.start.p0(i64 4, ptr %10) #12
  store i32 0, ptr %10, align 4, !tbaa !8
  br label %12

12:                                               ; preds = %36, %4
  %13 = load i32, ptr %10, align 4, !tbaa !8
  %14 = load i32, ptr %7, align 4, !tbaa !8
  %15 = icmp slt i32 %13, %14
  br i1 %15, label %16, label %39

16:                                               ; preds = %12
  %17 = load i32, ptr %8, align 4, !tbaa !8
  %18 = load i32, ptr %9, align 4, !tbaa !8
  %19 = xor i32 %17, %18
  %20 = load i32, ptr %10, align 4, !tbaa !8
  %21 = ashr i32 %19, %20
  %22 = and i32 %21, 1
  %23 = icmp ne i32 %22, 0
  br i1 %23, label %24, label %35

24:                                               ; preds = %16
  %25 = load ptr, ptr %6, align 8, !tbaa !10
  %26 = load i32, ptr %10, align 4, !tbaa !8
  %27 = sext i32 %26 to i64
  %28 = getelementptr inbounds i32, ptr %25, i64 %27
  %29 = load i32, ptr %28, align 4, !tbaa !8
  %30 = load i32, ptr %8, align 4, !tbaa !8
  %31 = load i32, ptr %10, align 4, !tbaa !8
  %32 = ashr i32 %30, %31
  %33 = and i32 %32, 1
  %34 = call i32 @Abc_LitNotCond(i32 noundef %29, i32 noundef %33)
  store i32 %34, ptr %5, align 4
  store i32 1, ptr %11, align 4
  br label %40

35:                                               ; preds = %16
  br label %36

36:                                               ; preds = %35
  %37 = load i32, ptr %10, align 4, !tbaa !8
  %38 = add nsw i32 %37, 1
  store i32 %38, ptr %10, align 4, !tbaa !8
  br label %12, !llvm.loop !91

39:                                               ; preds = %12
  store i32 -1, ptr %5, align 4
  store i32 1, ptr %11, align 4
  br label %40

40:                                               ; preds = %39, %24
  call void @llvm.lifetime.end.p0(i64 4, ptr %10) #12
  %41 = load i32, ptr %5, align 4
  ret i32 %41
}

; Function Attrs: nounwind uwtable
define i32 @Gia_ManHashOr(ptr noundef %0, i32 noundef %1, i32 noundef %2) #0 {
  %4 = alloca ptr, align 8
  %5 = alloca i32, align 4
  %6 = alloca i32, align 4
  store ptr %0, ptr %4, align 8, !tbaa !3
  store i32 %1, ptr %5, align 4, !tbaa !8
  store i32 %2, ptr %6, align 4, !tbaa !8
  %7 = load ptr, ptr %4, align 8, !tbaa !3
  %8 = load i32, ptr %5, align 4, !tbaa !8
  %9 = call i32 @Abc_LitNot(i32 noundef %8)
  %10 = load i32, ptr %6, align 4, !tbaa !8
  %11 = call i32 @Abc_LitNot(i32 noundef %10)
  %12 = call i32 @Gia_ManHashAnd(ptr noundef %7, i32 noundef %9, i32 noundef %11)
  %13 = call i32 @Abc_LitNot(i32 noundef %12)
  ret i32 %13
}

; Function Attrs: nounwind uwtable
define i32 @Gia_ManCube(ptr noundef %0, i32 noundef %1, i32 noundef %2, ptr noundef %3) #0 {
  %5 = alloca ptr, align 8
  %6 = alloca i32, align 4
  %7 = alloca i32, align 4
  %8 = alloca ptr, align 8
  %9 = alloca i32, align 4
  %10 = alloca i32, align 4
  store ptr %0, ptr %5, align 8, !tbaa !3
  store i32 %1, ptr %6, align 4, !tbaa !8
  store i32 %2, ptr %7, align 4, !tbaa !8
  store ptr %3, ptr %8, align 8, !tbaa !10
  call void @llvm.lifetime.start.p0(i64 4, ptr %9) #12
  call void @llvm.lifetime.start.p0(i64 4, ptr %10) #12
  store i32 1, ptr %10, align 4, !tbaa !8
  store i32 0, ptr %9, align 4, !tbaa !8
  br label %11

11:                                               ; preds = %32, %4
  %12 = load i32, ptr %9, align 4, !tbaa !8
  %13 = load i32, ptr %7, align 4, !tbaa !8
  %14 = icmp slt i32 %12, %13
  br i1 %14, label %15, label %35

15:                                               ; preds = %11
  %16 = load ptr, ptr %5, align 8, !tbaa !3
  %17 = load i32, ptr %10, align 4, !tbaa !8
  %18 = load ptr, ptr %8, align 8, !tbaa !10
  %19 = load i32, ptr %9, align 4, !tbaa !8
  %20 = sext i32 %19 to i64
  %21 = getelementptr inbounds i32, ptr %18, i64 %20
  %22 = load i32, ptr %21, align 4, !tbaa !8
  %23 = load i32, ptr %6, align 4, !tbaa !8
  %24 = load i32, ptr %9, align 4, !tbaa !8
  %25 = ashr i32 %23, %24
  %26 = and i32 %25, 1
  %27 = icmp ne i32 %26, 0
  %28 = xor i1 %27, true
  %29 = zext i1 %28 to i32
  %30 = call i32 @Abc_LitNotCond(i32 noundef %22, i32 noundef %29)
  %31 = call i32 @Gia_ManHashAnd(ptr noundef %16, i32 noundef %17, i32 noundef %30)
  store i32 %31, ptr %10, align 4, !tbaa !8
  br label %32

32:                                               ; preds = %15
  %33 = load i32, ptr %9, align 4, !tbaa !8
  %34 = add nsw i32 %33, 1
  store i32 %34, ptr %9, align 4, !tbaa !8
  br label %11, !llvm.loop !85

35:                                               ; preds = %11
  %36 = load i32, ptr %10, align 4, !tbaa !8
  call void @llvm.lifetime.end.p0(i64 4, ptr %10) #12
  call void @llvm.lifetime.end.p0(i64 4, ptr %9) #12
  ret i32 %36
}

; Function Attrs: nounwind uwtable
define i32 @Gia_ManDecompTwo(ptr noundef %0, ptr noundef %1, i32 noundef %2, ptr noundef %3, i32 noundef %4, i32 noundef %5) #0 {
  %7 = alloca ptr, align 8
  %8 = alloca ptr, align 8
  %9 = alloca i32, align 4
  %10 = alloca ptr, align 8
  %11 = alloca i32, align 4
  %12 = alloca i32, align 4
  %13 = alloca i32, align 4
  %14 = alloca i32, align 4
  %15 = alloca i32, align 4
  %16 = alloca i32, align 4
  %17 = alloca i32, align 4
  %18 = alloca i32, align 4
  store ptr %0, ptr %7, align 8, !tbaa !3
  store ptr %1, ptr %8, align 8, !tbaa !10
  store i32 %2, ptr %9, align 4, !tbaa !8
  store ptr %3, ptr %10, align 8, !tbaa !10
  store i32 %4, ptr %11, align 4, !tbaa !8
  store i32 %5, ptr %12, align 4, !tbaa !8
  call void @llvm.lifetime.start.p0(i64 4, ptr %13) #12
  call void @llvm.lifetime.start.p0(i64 4, ptr %14) #12
  call void @llvm.lifetime.start.p0(i64 4, ptr %15) #12
  call void @llvm.lifetime.start.p0(i64 4, ptr %16) #12
  call void @llvm.lifetime.start.p0(i64 4, ptr %17) #12
  call void @llvm.lifetime.start.p0(i64 4, ptr %18) #12
  %19 = load ptr, ptr %8, align 8, !tbaa !10
  %20 = load i32, ptr %9, align 4, !tbaa !8
  %21 = load i32, ptr %11, align 4, !tbaa !8
  %22 = add nsw i32 %20, %21
  %23 = sext i32 %22 to i64
  %24 = getelementptr inbounds i32, ptr %19, i64 %23
  %25 = load i32, ptr %24, align 4, !tbaa !8
  store i32 %25, ptr %14, align 4, !tbaa !8
  %26 = load ptr, ptr %8, align 8, !tbaa !10
  %27 = load i32, ptr %9, align 4, !tbaa !8
  %28 = load i32, ptr %12, align 4, !tbaa !8
  %29 = add nsw i32 %27, %28
  %30 = sext i32 %29 to i64
  %31 = getelementptr inbounds i32, ptr %26, i64 %30
  %32 = load i32, ptr %31, align 4, !tbaa !8
  store i32 %32, ptr %15, align 4, !tbaa !8
  %33 = load ptr, ptr %8, align 8, !tbaa !10
  %34 = load i32, ptr %9, align 4, !tbaa !8
  %35 = load i32, ptr %11, align 4, !tbaa !8
  %36 = xor i32 %35, 1
  %37 = add nsw i32 %34, %36
  %38 = sext i32 %37 to i64
  %39 = getelementptr inbounds i32, ptr %33, i64 %38
  %40 = load i32, ptr %39, align 4, !tbaa !8
  %41 = load ptr, ptr %8, align 8, !tbaa !10
  %42 = load i32, ptr %9, align 4, !tbaa !8
  %43 = load i32, ptr %11, align 4, !tbaa !8
  %44 = add nsw i32 %42, %43
  %45 = sext i32 %44 to i64
  %46 = getelementptr inbounds i32, ptr %41, i64 %45
  store i32 %40, ptr %46, align 4, !tbaa !8
  %47 = load ptr, ptr %8, align 8, !tbaa !10
  %48 = load i32, ptr %9, align 4, !tbaa !8
  %49 = load i32, ptr %12, align 4, !tbaa !8
  %50 = xor i32 %49, 1
  %51 = add nsw i32 %48, %50
  %52 = sext i32 %51 to i64
  %53 = getelementptr inbounds i32, ptr %47, i64 %52
  %54 = load i32, ptr %53, align 4, !tbaa !8
  %55 = load ptr, ptr %8, align 8, !tbaa !10
  %56 = load i32, ptr %9, align 4, !tbaa !8
  %57 = load i32, ptr %12, align 4, !tbaa !8
  %58 = add nsw i32 %56, %57
  %59 = sext i32 %58 to i64
  %60 = getelementptr inbounds i32, ptr %55, i64 %59
  store i32 %54, ptr %60, align 4, !tbaa !8
  %61 = load ptr, ptr %7, align 8, !tbaa !3
  %62 = load ptr, ptr %8, align 8, !tbaa !10
  %63 = load i32, ptr %9, align 4, !tbaa !8
  %64 = load ptr, ptr %8, align 8, !tbaa !10
  %65 = load i32, ptr %9, align 4, !tbaa !8
  %66 = sext i32 %65 to i64
  %67 = getelementptr inbounds i32, ptr %64, i64 %66
  %68 = call i32 @Gia_ManMuxTree_rec(ptr noundef %61, ptr noundef %62, i32 noundef %63, ptr noundef %67)
  store i32 %68, ptr %13, align 4, !tbaa !8
  %69 = load ptr, ptr %7, align 8, !tbaa !3
  %70 = load ptr, ptr %7, align 8, !tbaa !3
  %71 = load i32, ptr %11, align 4, !tbaa !8
  %72 = load i32, ptr %9, align 4, !tbaa !8
  %73 = load ptr, ptr %8, align 8, !tbaa !10
  %74 = call i32 @Gia_ManCube(ptr noundef %70, i32 noundef %71, i32 noundef %72, ptr noundef %73)
  %75 = load ptr, ptr %7, align 8, !tbaa !3
  %76 = load i32, ptr %12, align 4, !tbaa !8
  %77 = load i32, ptr %9, align 4, !tbaa !8
  %78 = load ptr, ptr %8, align 8, !tbaa !10
  %79 = call i32 @Gia_ManCube(ptr noundef %75, i32 noundef %76, i32 noundef %77, ptr noundef %78)
  %80 = call i32 @Gia_ManHashOr(ptr noundef %69, i32 noundef %74, i32 noundef %79)
  store i32 %80, ptr %17, align 4, !tbaa !8
  %81 = load ptr, ptr %8, align 8, !tbaa !10
  %82 = load i32, ptr %9, align 4, !tbaa !8
  %83 = load i32, ptr %11, align 4, !tbaa !8
  %84 = load i32, ptr %12, align 4, !tbaa !8
  %85 = call i32 @Gia_ManFindCond(ptr noundef %81, i32 noundef %82, i32 noundef %83, i32 noundef %84)
  store i32 %85, ptr %18, align 4, !tbaa !8
  %86 = load ptr, ptr %7, align 8, !tbaa !3
  %87 = load i32, ptr %18, align 4, !tbaa !8
  %88 = load i32, ptr %15, align 4, !tbaa !8
  %89 = load i32, ptr %14, align 4, !tbaa !8
  %90 = call i32 @Gia_ManHashMux(ptr noundef %86, i32 noundef %87, i32 noundef %88, i32 noundef %89)
  store i32 %90, ptr %16, align 4, !tbaa !8
  %91 = load ptr, ptr %7, align 8, !tbaa !3
  %92 = load i32, ptr %17, align 4, !tbaa !8
  %93 = load i32, ptr %16, align 4, !tbaa !8
  %94 = load i32, ptr %13, align 4, !tbaa !8
  %95 = call i32 @Gia_ManHashMux(ptr noundef %91, i32 noundef %92, i32 noundef %93, i32 noundef %94)
  call void @llvm.lifetime.end.p0(i64 4, ptr %18) #12
  call void @llvm.lifetime.end.p0(i64 4, ptr %17) #12
  call void @llvm.lifetime.end.p0(i64 4, ptr %16) #12
  call void @llvm.lifetime.end.p0(i64 4, ptr %15) #12
  call void @llvm.lifetime.end.p0(i64 4, ptr %14) #12
  call void @llvm.lifetime.end.p0(i64 4, ptr %13) #12
  ret i32 %95
}