; Function Attrs: nounwind uwtable
define i32 @Gia_ManDecompTwo(ptr noundef %0, ptr noundef %1, i32 noundef %2, ptr readnone captures(none) %3, i32 noundef %4, i32 noundef %5) local_unnamed_addr #2 {
  %7 = add nsw i32 %4, %2
  %8 = sext i32 %7 to i64
  %9 = getelementptr inbounds i32, ptr %1, i64 %8
  %10 = load i32, ptr %9, align 4, !tbaa !11
  %11 = add nsw i32 %5, %2
  %12 = sext i32 %11 to i64
  %13 = getelementptr inbounds i32, ptr %1, i64 %12
  %14 = load i32, ptr %13, align 4, !tbaa !11
  %15 = xor i32 %4, 1
  %16 = add nsw i32 %15, %2
  %17 = sext i32 %16 to i64
  %18 = getelementptr inbounds i32, ptr %1, i64 %17
  %19 = load i32, ptr %18, align 4, !tbaa !11
  store i32 %19, ptr %9, align 4, !tbaa !11
  %20 = xor i32 %5, 1
  %21 = add nsw i32 %20, %2
  %22 = sext i32 %21 to i64
  %23 = getelementptr inbounds i32, ptr %1, i64 %22
  %24 = load i32, ptr %23, align 4, !tbaa !11
  store i32 %24, ptr %13, align 4, !tbaa !11
  %25 = sext i32 %2 to i64
  %26 = getelementptr inbounds i32, ptr %1, i64 %25
  %27 = tail call i32 @Gia_ManMuxTree_rec(ptr noundef %0, ptr noundef %1, i32 noundef %2, ptr noundef %26)
  %28 = icmp sgt i32 %2, 0
  br i1 %28, label %.lr.ph.i, label %Gia_ManCube.exit50.thread

Gia_ManCube.exit50.thread:                        ; preds = %6
  %29 = tail call i32 @Gia_ManHashAnd(ptr noundef %0, i32 noundef 0, i32 noundef 0)
  br label %Gia_ManFindCond.exit

.lr.ph.i:                                         ; preds = %6
  %30 = xor i32 %4, -1
  %wide.trip.count.i = zext nneg i32 %2 to i64
  br label %31

31:                                               ; preds = %31, %.lr.ph.i
  %indvars.iv.i = phi i64 [ 0, %.lr.ph.i ], [ %indvars.iv.next.i, %31 ]
  %.011.i = phi i32 [ 1, %.lr.ph.i ], [ %38, %31 ]
  %32 = getelementptr inbounds nuw i32, ptr %1, i64 %indvars.iv.i
  %33 = load i32, ptr %32, align 4, !tbaa !11
  %34 = trunc nuw nsw i64 %indvars.iv.i to i32
  %35 = lshr i32 %30, %34
  %36 = and i32 %35, 1
  %37 = xor i32 %36, %33
  %38 = tail call i32 @Gia_ManHashAnd(ptr noundef %0, i32 noundef %.011.i, i32 noundef %37)
  %indvars.iv.next.i = add nuw nsw i64 %indvars.iv.i, 1
  %exitcond.not.i = icmp eq i64 %indvars.iv.next.i, %wide.trip.count.i
  br i1 %exitcond.not.i, label %.lr.ph.i44, label %31, !llvm.loop !78

.lr.ph.i44:                                       ; preds = %31
  %39 = xor i32 %5, -1
  br label %40

40:                                               ; preds = %40, %.lr.ph.i44
  %indvars.iv.i46 = phi i64 [ 0, %.lr.ph.i44 ], [ %indvars.iv.next.i48, %40 ]
  %.011.i47 = phi i32 [ 1, %.lr.ph.i44 ], [ %47, %40 ]
  %41 = getelementptr inbounds nuw i32, ptr %1, i64 %indvars.iv.i46
  %42 = load i32, ptr %41, align 4, !tbaa !11
  %43 = trunc nuw nsw i64 %indvars.iv.i46 to i32
  %44 = lshr i32 %39, %43
  %45 = and i32 %44, 1
  %46 = xor i32 %45, %42
  %47 = tail call i32 @Gia_ManHashAnd(ptr noundef %0, i32 noundef %.011.i47, i32 noundef %46)
  %indvars.iv.next.i48 = add nuw nsw i64 %indvars.iv.i46, 1
  %exitcond.not.i49 = icmp eq i64 %indvars.iv.next.i48, %wide.trip.count.i
  br i1 %exitcond.not.i49, label %Gia_ManCube.exit50, label %40, !llvm.loop !78

Gia_ManCube.exit50:                               ; preds = %40
  %48 = xor i32 %38, 1
  %49 = xor i32 %47, 1
  %50 = tail call i32 @Gia_ManHashAnd(ptr noundef %0, i32 noundef %48, i32 noundef %49)
  %51 = xor i32 %5, %4
  br label %52

52:                                               ; preds = %62, %Gia_ManCube.exit50
  %.012.i = phi i32 [ 0, %Gia_ManCube.exit50 ], [ %63, %62 ]
  %53 = shl nuw i32 1, %.012.i
  %54 = and i32 %53, %51
  %.not.i = icmp eq i32 %54, 0
  br i1 %.not.i, label %62, label %55

55:                                               ; preds = %52
  %56 = zext nneg i32 %.012.i to i64
  %57 = getelementptr inbounds nuw i32, ptr %1, i64 %56
  %58 = load i32, ptr %57, align 4, !tbaa !11
  %59 = lshr i32 %4, %.012.i
  %60 = and i32 %59, 1
  %61 = xor i32 %58, %60
  br label %Gia_ManFindCond.exit

62:                                               ; preds = %52
  %63 = add nuw nsw i32 %.012.i, 1
  %exitcond.not.i52 = icmp eq i32 %63, %2
  br i1 %exitcond.not.i52, label %Gia_ManFindCond.exit, label %52, !llvm.loop !82

Gia_ManFindCond.exit:                             ; preds = %62, %Gia_ManCube.exit50.thread, %55
  %64 = phi i32 [ %50, %55 ], [ %29, %Gia_ManCube.exit50.thread ], [ %50, %62 ]
  %.010.i = phi i32 [ %61, %55 ], [ -1, %Gia_ManCube.exit50.thread ], [ -1, %62 ]
  %65 = xor i32 %64, 1
  %66 = tail call i32 @Gia_ManHashMux(ptr noundef %0, i32 noundef %.010.i, i32 noundef %14, i32 noundef %10)
  %67 = tail call i32 @Gia_ManHashMux(ptr noundef %0, i32 noundef %65, i32 noundef %66, i32 noundef %27)
  ret i32 %67
}